; Function Attrs: nofree norecurse nosync nounwind memory(argmem: readwrite) uwtable
define internal void @transpose_8x8_16_c(ptr noundef readonly captures(none) %0, i64 noundef %1, ptr noundef writeonly captures(none) %2, i64 noundef %3) #7 {
  br label %.preheader.us.i

.preheader.us.i:                                  ; preds = %._crit_edge.us.i, %4
  %.019.us.i = phi i32 [ %11, %._crit_edge.us.i ], [ 0, %4 ]
  %.01418.us.i = phi ptr [ %13, %._crit_edge.us.i ], [ %0, %4 ]
  %.01517.us.i = phi ptr [ %12, %._crit_edge.us.i ], [ %2, %4 ]
  br label %5

5:                                                ; preds = %5, %.preheader.us.i
  %indvars.iv.i = phi i64 [ 0, %.preheader.us.i ], [ %indvars.iv.next.i, %5 ]
  %6 = mul nsw i64 %indvars.iv.i, %1
  %7 = getelementptr inbounds i8, ptr %.01418.us.i, i64 %6
  %8 = load i16, ptr %7, align 2, !tbaa !78
  %9 = shl nuw nsw i64 %indvars.iv.i, 1
  %10 = getelementptr inbounds nuw i8, ptr %.01517.us.i, i64 %9
  store i16 %8, ptr %10, align 2, !tbaa !78
  %indvars.iv.next.i = add nuw nsw i64 %indvars.iv.i, 1
  %exitcond.not.i = icmp eq i64 %indvars.iv.next.i, 8
  br i1 %exitcond.not.i, label %._crit_edge.us.i, label %5, !llvm.loop !80

._crit_edge.us.i:                                 ; preds = %5
  %11 = add nuw nsw i32 %.019.us.i, 1
  %12 = getelementptr inbounds i8, ptr %.01517.us.i, i64 %3
  %13 = getelementptr inbounds nuw i8, ptr %.01418.us.i, i64 2
  %exitcond23.not.i = icmp eq i32 %11, 8
  br i1 %exitcond23.not.i, label %transpose_block_16_c.exit, label %.preheader.us.i, !llvm.loop !81

transpose_block_16_c.exit:                        ; preds = %._crit_edge.us.i
  ret void
}